(ioptparse
Values
p0
(dp1
S'selected_nodes'
p2
(lp3
S'path2371:0:259'
p4
aS'path2371:0:215'
p5
aS'path2371:0:10'
p6
aS'path2371:0:202'
p7
aS'path2371:0:258'
p8
aS'path2371:0:60'
p9
aS'path2371:0:257'
p10
aS'path2371:0:256'
p11
aS'path2371:0:166'
p12
aS'path2371:0:254'
p13
aS'path2371:0:252'
p14
aS'path2371:0:248'
p15
aS'path2371:0:247'
p16
aS'path2371:0:246'
p17
aS'path2371:0:245'
p18
aS'path2371:0:110'
p19
aS'path2371:0:27'
p20
aS'path2371:0:244'
p21
aS'path2371:0:178'
p22
aS'path2371:0:243'
p23
aS'path2371:0:167'
p24
aS'path2371:0:242'
p25
aS'path2371:0:241'
p26
aS'path2371:0:210'
p27
aS'path2371:0:5'
p28
aS'path2371:0:240'
p29
aS'path2371:0:239'
p30
aS'path2371:0:72'
p31
aS'path2371:0:238'
p32
aS'path2371:0:176'
p33
aS'path2371:0:237'
p34
aS'path2371:0:234'
p35
aS'path2371:0:236'
p36
aS'path2371:0:228'
p37
aS'path2371:0:235'
p38
aS'path2371:0:61'
p39
aS'path2371:0:233'
p40
aS'path2371:0:23'
p41
aS'path2371:0:231'
p42
aS'path2371:0:185'
p43
aS'path2371:0:230'
p44
aS'path2371:0:227'
p45
aS'path2371:0:214'
p46
aS'path2371:0:32'
p47
aS'path2371:0:224'
p48
aS'path2371:0:223'
p49
aS'path2371:0:49'
p50
aS'path2371:0:222'
p51
aS'path2371:0:221'
p52
aS'path2371:0:4'
p53
aS'path2371:0:220'
p54
aS'path2371:0:219'
p55
aS'path2371:0:199'
p56
aS'path2371:0:113'
p57
aS'path2371:0:217'
p58
aS'path2371:0:172'
p59
aS'path2371:0:153'
p60
aS'path2371:0:216'
p61
aS'path2371:0:229'
p62
aS'path2371:0:80'
p63
aS'path2371:0:213'
p64
aS'path2371:0:138'
p65
aS'path2371:0:105'
p66
aS'path2371:0:212'
p67
aS'path2371:0:211'
p68
aS'path2371:0:66'
p69
aS'path2371:0:209'
p70
aS'path2371:0:208'
p71
aS'path2371:0:205'
p72
aS'path2371:0:121'
p73
aS'path2371:0:109'
p74
aS'path2371:0:204'
p75
aS'path2371:0:130'
p76
aS'path2371:0:203'
p77
aS'path2371:0:201'
p78
aS'path2371:0:200'
p79
aS'path2371:0:73'
p80
aS'path2371:0:20'
p81
aS'path2371:0:198'
p82
aS'path2371:0:63'
p83
aS'path2371:0:28'
p84
aS'path2371:0:197'
p85
aS'path2371:0:44'
p86
aS'path2371:0:196'
p87
aS'path2371:0:184'
p88
aS'path2371:0:29'
p89
aS'path2371:0:195'
p90
aS'path2371:0:194'
p91
aS'path2371:0:193'
p92
aS'path2371:0:192'
p93
aS'path2371:0:177'
p94
aS'path2371:0:133'
p95
aS'path2371:0:191'
p96
aS'path2371:0:190'
p97
aS'path2371:0:189'
p98
aS'path2371:0:171'
p99
aS'path2371:0:84'
p100
aS'path2371:0:188'
p101
aS'path2371:0:187'
p102
aS'path2371:0:186'
p103
aS'path2371:0:59'
p104
aS'path2371:0:250'
p105
aS'path2371:0:116'
p106
aS'path2371:0:183'
p107
aS'path2371:0:180'
p108
aS'path2371:0:179'
p109
aS'path2371:0:206'
p110
aS'path2371:0:102'
p111
aS'path2371:0:253'
p112
aS'path2371:0:255'
p113
aS'path2371:0:175'
p114
aS'path2371:0:174'
p115
aS'path2371:0:170'
p116
aS'path2371:0:169'
p117
aS'path2371:0:168'
p118
aS'path2371:0:0'
p119
aS'path2371:0:165'
p120
aS'path2371:0:164'
p121
aS'path2371:0:36'
p122
aS'path2371:0:163'
p123
aS'path2371:0:70'
p124
aS'path2371:0:162'
p125
aS'path2371:0:161'
p126
aS'path2371:0:160'
p127
aS'path2371:0:158'
p128
aS'path2371:0:156'
p129
aS'path2371:0:114'
p130
aS'path2371:0:154'
p131
aS'path2371:0:152'
p132
aS'path2371:0:151'
p133
aS'path2371:0:207'
p134
aS'path2371:0:150'
p135
aS'path2371:0:149'
p136
aS'path2371:0:108'
p137
aS'path2371:0:148'
p138
aS'path2371:0:155'
p139
aS'path2371:0:147'
p140
aS'path2371:0:146'
p141
aS'path2371:0:144'
p142
aS'path2371:0:106'
p143
aS'path2371:0:142'
p144
aS'path2371:0:45'
p145
aS'path2371:0:141'
p146
aS'path2371:0:139'
p147
aS'path2371:0:145'
p148
aS'path2371:0:137'
p149
aS'path2371:0:135'
p150
aS'path2371:0:77'
p151
aS'path2371:0:134'
p152
aS'path2371:0:127'
p153
aS'path2371:0:218'
p154
aS'path2371:0:132'
p155
aS'path2371:0:131'
p156
aS'path2371:0:104'
p157
aS'path2371:0:129'
p158
aS'path2371:0:128'
p159
aS'path2371:0:126'
p160
aS'path2371:0:124'
p161
aS'path2371:0:123'
p162
aS'path2371:0:120'
p163
aS'path2371:0:1'
p164
aS'path2371:0:143'
p165
aS'path2371:0:119'
p166
aS'path2371:0:117'
p167
aS'path2371:0:115'
p168
aS'path2371:0:16'
p169
aS'path2371:0:112'
p170
aS'path2371:0:21'
p171
aS'path2371:0:111'
p172
aS'path2371:0:107'
p173
aS'path2371:0:181'
p174
aS'path2371:0:64'
p175
aS'path2371:0:103'
p176
aS'path2371:0:249'
p177
aS'path2371:0:101'
p178
aS'path2371:0:100'
p179
aS'path2371:0:98'
p180
aS'path2371:0:97'
p181
aS'path2371:0:93'
p182
aS'path2371:0:96'
p183
aS'path2371:0:42'
p184
aS'path2371:0:95'
p185
aS'path2371:0:74'
p186
aS'path2371:0:157'
p187
aS'path2371:0:94'
p188
aS'path2371:0:3'
p189
aS'path2371:0:92'
p190
aS'path2371:0:91'
p191
aS'path2371:0:90'
p192
aS'path2371:0:89'
p193
aS'path2371:0:31'
p194
aS'path2371:0:88'
p195
aS'path2371:0:87'
p196
aS'path2371:0:38'
p197
aS'path2371:0:86'
p198
aS'path2371:0:41'
p199
aS'path2371:0:226'
p200
aS'path2371:0:85'
p201
aS'path2371:0:83'
p202
aS'path2371:0:82'
p203
aS'path2371:0:81'
p204
aS'path2371:0:79'
p205
aS'path2371:0:78'
p206
aS'path2371:0:125'
p207
aS'path2371:0:76'
p208
aS'path2371:0:75'
p209
aS'path2371:0:15'
p210
aS'path2371:0:251'
p211
aS'path2371:0:71'
p212
aS'path2371:0:69'
p213
aS'path2371:0:13'
p214
aS'path2371:0:67'
p215
aS'path2371:0:65'
p216
aS'path2371:0:7'
p217
aS'path2371:0:62'
p218
aS'path2371:0:58'
p219
aS'path2371:0:56'
p220
aS'path2371:0:25'
p221
aS'path2371:0:159'
p222
aS'path2371:0:55'
p223
aS'path2371:0:54'
p224
aS'path2371:0:53'
p225
aS'path2371:0:52'
p226
aS'path2371:0:8'
p227
aS'path2371:0:51'
p228
aS'path2371:0:50'
p229
aS'path2371:0:48'
p230
aS'path2371:0:22'
p231
aS'path2371:0:47'
p232
aS'path2371:0:57'
p233
aS'path2371:0:46'
p234
aS'path2371:0:136'
p235
aS'path2371:0:43'
p236
aS'path2371:0:40'
p237
aS'path2371:0:39'
p238
aS'path2371:0:37'
p239
aS'path2371:0:182'
p240
aS'path2371:0:140'
p241
aS'path2371:0:232'
p242
aS'path2371:0:35'
p243
aS'path2371:0:34'
p244
aS'path2371:0:30'
p245
aS'path2371:0:26'
p246
aS'path2371:0:24'
p247
aS'path2371:0:173'
p248
aS'path2371:0:68'
p249
aS'path2371:0:19'
p250
aS'path2371:0:18'
p251
aS'path2371:0:17'
p252
aS'path2371:0:225'
p253
aS'path2371:0:14'
p254
aS'path2371:0:99'
p255
aS'path2371:0:12'
p256
aS'path2371:0:11'
p257
aS'path2371:0:9'
p258
aS'path2371:0:118'
p259
aS'path2371:0:6'
p260
aS'path2371:0:122'
p261
aS'path2371:0:33'
p262
aS'path2371:0:2'
p263
asS'autoflatten'
p264
I01
sS'filetype'
p265
S'kicad_module'
p266
sS'ids'
p267
(lp268
S'path2371'
p269
asS'crop'
p270
I00
sS'debug'
p271
I00
sS'openkicad'
p272
I00
sS'openfactory'
p273
I00
sS'threshold'
p274
F128.0
sS'path'
p275
S'/home/greynaga/Github/MeowMeow/Paso/paso_01/paso_02.pretty'
p276
sS'dpi'
p277
F1200.0
sb.