(ioptparse
Values
p0
(dp1
S'selected_nodes'
p2
(lp3
S'path1027:0:372'
p4
aS'path1027:0:306'
p5
aS'path1027:0:356'
p6
aS'path1027:0:202'
p7
aS'path1027:0:340'
p8
aS'path1027:0:308'
p9
aS'path1027:0:292'
p10
aS'path1027:0:276'
p11
aS'path1027:0:28'
p12
aS'path1027:0:97'
p13
aS'path1027:0:260'
p14
aS'path1027:0:85'
p15
aS'path1027:0:244'
p16
aS'path1027:0:237'
p17
aS'path1027:0:228'
p18
aS'path1027:0:332'
p19
aS'path1027:0:212'
p20
aS'path1027:0:196'
p21
aS'path1027:0:180'
p22
aS'path1027:0:164'
p23
aS'path1027:0:324'
p24
aS'path1027:0:148'
p25
aS'path1027:0:132'
p26
aS'path1027:0:216'
p27
aS'path1027:0:116'
p28
aS'path1027:0:100'
p29
aS'path1027:0:84'
p30
aS'path1027:0:68'
p31
aS'path1027:0:52'
p32
aS'path1027:0:36'
p33
aS'path1027:0:20'
p34
aS'path1027:0:4'
p35
aS'path1027:0:12'
p36
aS'path1027:0:304'
p37
aS'path1027:0:44'
p38
aS'path1027:0:60'
p39
aS'path1027:0:316'
p40
aS'path1027:0:76'
p41
aS'path1027:0:92'
p42
aS'path1027:0:108'
p43
aS'path1027:0:124'
p44
aS'path1027:0:47'
p45
aS'path1027:0:140'
p46
aS'path1027:0:156'
p47
aS'path1027:0:172'
p48
aS'path1027:0:188'
p49
aS'path1027:0:204'
p50
aS'path1027:0:317'
p51
aS'path1027:0:220'
p52
aS'path1027:0:351'
p53
aS'path1027:0:236'
p54
aS'path1027:0:252'
p55
aS'path1027:0:268'
p56
aS'path1027:0:226'
p57
aS'path1027:0:284'
p58
aS'path1027:0:229'
p59
aS'path1027:0:300'
p60
aS'path1027:0:175'
p61
aS'path1027:0:348'
p62
aS'path1027:0:364'
p63
aS'path1027:0:312'
p64
aS'path1027:0:8'
p65
aS'path1027:0:213'
p66
aS'path1027:0:16'
p67
aS'path1027:0:24'
p68
aS'path1027:0:32'
p69
aS'path1027:0:40'
p70
aS'path1027:0:48'
p71
aS'path1027:0:126'
p72
aS'path1027:0:56'
p73
aS'path1027:0:365'
p74
aS'path1027:0:64'
p75
aS'path1027:0:281'
p76
aS'path1027:0:72'
p77
aS'path1027:0:80'
p78
aS'path1027:0:88'
p79
aS'path1027:0:266'
p80
aS'path1027:0:96'
p81
aS'path1027:0:104'
p82
aS'path1027:0:112'
p83
aS'path1027:0:120'
p84
aS'path1027:0:128'
p85
aS'path1027:0:136'
p86
aS'path1027:0:263'
p87
aS'path1027:0:144'
p88
aS'path1027:0:152'
p89
aS'path1027:0:160'
p90
aS'path1027:0:165'
p91
aS'path1027:0:168'
p92
aS'path1027:0:176'
p93
aS'path1027:0:184'
p94
aS'path1027:0:192'
p95
aS'path1027:0:200'
p96
aS'path1027:0:371'
p97
aS'path1027:0:208'
p98
aS'path1027:0:206'
p99
aS'path1027:0:338'
p100
aS'path1027:0:224'
p101
aS'path1027:0:232'
p102
aS'path1027:0:240'
p103
aS'path1027:0:248'
p104
aS'path1027:0:256'
p105
aS'path1027:0:99'
p106
aS'path1027:0:264'
p107
aS'path1027:0:272'
p108
aS'path1027:0:246'
p109
aS'path1027:0:280'
p110
aS'path1027:0:288'
p111
aS'path1027:0:296'
p112
aS'path1027:0:181'
p113
aS'path1027:0:320'
p114
aS'path1027:0:328'
p115
aS'path1027:0:6'
p116
aS'path1027:0:166'
p117
aS'path1027:0:336'
p118
aS'path1027:0:344'
p119
aS'path1027:0:129'
p120
aS'path1027:0:231'
p121
aS'path1027:0:352'
p122
aS'path1027:0:360'
p123
aS'path1027:0:177'
p124
aS'path1027:0:368'
p125
aS'path1027:0:209'
p126
aS'path1027:0:331'
p127
aS'path1027:0:10'
p128
aS'path1027:0:14'
p129
aS'path1027:0:18'
p130
aS'path1027:0:22'
p131
aS'path1027:0:69'
p132
aS'path1027:0:26'
p133
aS'path1027:0:30'
p134
aS'path1027:0:17'
p135
aS'path1027:0:34'
p136
aS'path1027:0:38'
p137
aS'path1027:0:162'
p138
aS'path1027:0:42'
p139
aS'path1027:0:46'
p140
aS'path1027:0:195'
p141
aS'path1027:0:50'
p142
aS'path1027:0:54'
p143
aS'path1027:0:358'
p144
aS'path1027:0:58'
p145
aS'path1027:0:62'
p146
aS'path1027:0:333'
p147
aS'path1027:0:66'
p148
aS'path1027:0:154'
p149
aS'path1027:0:70'
p150
aS'path1027:0:74'
p151
aS'path1027:0:78'
p152
aS'path1027:0:82'
p153
aS'path1027:0:86'
p154
aS'path1027:0:90'
p155
aS'path1027:0:94'
p156
aS'path1027:0:98'
p157
aS'path1027:0:102'
p158
aS'path1027:0:106'
p159
aS'path1027:0:110'
p160
aS'path1027:0:114'
p161
aS'path1027:0:13'
p162
aS'path1027:0:118'
p163
aS'path1027:0:31'
p164
aS'path1027:0:122'
p165
aS'path1027:0:211'
p166
aS'path1027:0:130'
p167
aS'path1027:0:134'
p168
aS'path1027:0:138'
p169
aS'path1027:0:142'
p170
aS'path1027:0:146'
p171
aS'path1027:0:361'
p172
aS'path1027:0:150'
p173
aS'path1027:0:45'
p174
aS'path1027:0:158'
p175
aS'path1027:0:170'
p176
aS'path1027:0:335'
p177
aS'path1027:0:174'
p178
aS'path1027:0:119'
p179
aS'path1027:0:178'
p180
aS'path1027:0:182'
p181
aS'path1027:0:186'
p182
aS'path1027:0:190'
p183
aS'path1027:0:194'
p184
aS'path1027:0:198'
p185
aS'path1027:0:210'
p186
aS'path1027:0:342'
p187
aS'path1027:0:137'
p188
aS'path1027:0:214'
p189
aS'path1027:0:218'
p190
aS'path1027:0:222'
p191
aS'path1027:0:230'
p192
aS'path1027:0:234'
p193
aS'path1027:0:238'
p194
aS'path1027:0:242'
p195
aS'path1027:0:250'
p196
aS'path1027:0:254'
p197
aS'path1027:0:258'
p198
aS'path1027:0:262'
p199
aS'path1027:0:73'
p200
aS'path1027:0:155'
p201
aS'path1027:0:303'
p202
aS'path1027:0:270'
p203
aS'path1027:0:274'
p204
aS'path1027:0:278'
p205
aS'path1027:0:282'
p206
aS'path1027:0:286'
p207
aS'path1027:0:290'
p208
aS'path1027:0:15'
p209
aS'path1027:0:294'
p210
aS'path1027:0:29'
p211
aS'path1027:0:298'
p212
aS'path1027:0:302'
p213
aS'path1027:0:310'
p214
aS'path1027:0:314'
p215
aS'path1027:0:318'
p216
aS'path1027:0:322'
p217
aS'path1027:0:326'
p218
aS'path1027:0:330'
p219
aS'path1027:0:334'
p220
aS'path1027:0:143'
p221
aS'path1027:0:346'
p222
aS'path1027:0:350'
p223
aS'path1027:0:354'
p224
aS'path1027:0:362'
p225
aS'path1027:0:366'
p226
aS'path1027:0:370'
p227
aS'path1027:0:5'
p228
aS'path1027:0:7'
p229
aS'path1027:0:9'
p230
aS'path1027:0:11'
p231
aS'path1027:0:343'
p232
aS'path1027:0:19'
p233
aS'path1027:0:21'
p234
aS'path1027:0:63'
p235
aS'path1027:0:23'
p236
aS'path1027:0:25'
p237
aS'path1027:0:271'
p238
aS'path1027:0:27'
p239
aS'path1027:0:33'
p240
aS'path1027:0:35'
p241
aS'path1027:0:37'
p242
aS'path1027:0:39'
p243
aS'path1027:0:41'
p244
aS'path1027:0:43'
p245
aS'path1027:0:49'
p246
aS'path1027:0:51'
p247
aS'path1027:0:53'
p248
aS'path1027:0:273'
p249
aS'path1027:0:55'
p250
aS'path1027:0:57'
p251
aS'path1027:0:59'
p252
aS'path1027:0:61'
p253
aS'path1027:0:65'
p254
aS'path1027:0:67'
p255
aS'path1027:0:259'
p256
aS'path1027:0:71'
p257
aS'path1027:0:75'
p258
aS'path1027:0:77'
p259
aS'path1027:0:227'
p260
aS'path1027:0:79'
p261
aS'path1027:0:81'
p262
aS'path1027:0:83'
p263
aS'path1027:0:87'
p264
aS'path1027:0:89'
p265
aS'path1027:0:91'
p266
aS'path1027:0:299'
p267
aS'path1027:0:93'
p268
aS'path1027:0:95'
p269
aS'path1027:0:101'
p270
aS'path1027:0:103'
p271
aS'path1027:0:105'
p272
aS'path1027:0:107'
p273
aS'path1027:0:109'
p274
aS'path1027:0:111'
p275
aS'path1027:0:113'
p276
aS'path1027:0:115'
p277
aS'path1027:0:117'
p278
aS'path1027:0:121'
p279
aS'path1027:0:123'
p280
aS'path1027:0:125'
p281
aS'path1027:0:127'
p282
aS'path1027:0:131'
p283
aS'path1027:0:133'
p284
aS'path1027:0:135'
p285
aS'path1027:0:139'
p286
aS'path1027:0:141'
p287
aS'path1027:0:145'
p288
aS'path1027:0:147'
p289
aS'path1027:0:191'
p290
aS'path1027:0:149'
p291
aS'path1027:0:151'
p292
aS'path1027:0:153'
p293
aS'path1027:0:157'
p294
aS'path1027:0:159'
p295
aS'path1027:0:203'
p296
aS'path1027:0:161'
p297
aS'path1027:0:163'
p298
aS'path1027:0:167'
p299
aS'path1027:0:169'
p300
aS'path1027:0:171'
p301
aS'path1027:0:311'
p302
aS'path1027:0:173'
p303
aS'path1027:0:179'
p304
aS'path1027:0:325'
p305
aS'path1027:0:183'
p306
aS'path1027:0:185'
p307
aS'path1027:0:187'
p308
aS'path1027:0:239'
p309
aS'path1027:0:189'
p310
aS'path1027:0:193'
p311
aS'path1027:0:197'
p312
aS'path1027:0:199'
p313
aS'path1027:0:201'
p314
aS'path1027:0:205'
p315
aS'path1027:0:207'
p316
aS'path1027:0:215'
p317
aS'path1027:0:217'
p318
aS'path1027:0:219'
p319
aS'path1027:0:221'
p320
aS'path1027:0:305'
p321
aS'path1027:0:223'
p322
aS'path1027:0:269'
p323
aS'path1027:0:225'
p324
aS'path1027:0:233'
p325
aS'path1027:0:235'
p326
aS'path1027:0:241'
p327
aS'path1027:0:355'
p328
aS'path1027:0:243'
p329
aS'path1027:0:245'
p330
aS'path1027:0:247'
p331
aS'path1027:0:249'
p332
aS'path1027:0:251'
p333
aS'path1027:0:253'
p334
aS'path1027:0:255'
p335
aS'path1027:0:257'
p336
aS'path1027:0:261'
p337
aS'path1027:0:265'
p338
aS'path1027:0:267'
p339
aS'path1027:0:275'
p340
aS'path1027:0:277'
p341
aS'path1027:0:279'
p342
aS'path1027:0:291'
p343
aS'path1027:0:283'
p344
aS'path1027:0:285'
p345
aS'path1027:0:315'
p346
aS'path1027:0:287'
p347
aS'path1027:0:289'
p348
aS'path1027:0:293'
p349
aS'path1027:0:295'
p350
aS'path1027:0:297'
p351
aS'path1027:0:301'
p352
aS'path1027:0:307'
p353
aS'path1027:0:309'
p354
aS'path1027:0:313'
p355
aS'path1027:0:319'
p356
aS'path1027:0:321'
p357
aS'path1027:0:323'
p358
aS'path1027:0:327'
p359
aS'path1027:0:329'
p360
aS'path1027:0:337'
p361
aS'path1027:0:339'
p362
aS'path1027:0:341'
p363
aS'path1027:0:345'
p364
aS'path1027:0:347'
p365
aS'path1027:0:349'
p366
aS'path1027:0:353'
p367
aS'path1027:0:357'
p368
aS'path1027:0:359'
p369
aS'path1027:0:363'
p370
aS'path1027:0:367'
p371
aS'path1027:0:369'
p372
asS'autoflatten'
p373
I00
sS'filetype'
p374
S'kicad_module'
p375
sS'ids'
p376
(lp377
S'path1027'
p378
asS'crop'
p379
I00
sS'debug'
p380
I00
sS'openkicad'
p381
I00
sS'openfactory'
p382
I00
sS'threshold'
p383
F128.0
sS'path'
p384
S'/home/greynaga/Github/MeowMeow/Paso/paso_01/paso_01.pretty'
p385
sS'dpi'
p386
F1200.0
sb.